; Function Attrs: nounwind uwtable
define ptr @l___private_Std_Sync_Channel_0__Std_CloseableChannel_Unbounded_recvReady_x27___rarg___lambda__1(ptr noundef %0, ptr noundef readonly captures(none) %1) local_unnamed_addr #1 {
  %3 = getelementptr inbounds nuw i8, ptr %1, i64 8
  %4 = load ptr, ptr %3, align 8, !tbaa !10
  %5 = tail call zeroext i8 @l_Std_Queue_isEmpty___rarg(ptr noundef %4) #7
  %6 = icmp eq i8 %5, 0
  %7 = getelementptr inbounds nuw i8, ptr %0, i64 8
  %8 = load ptr, ptr %7, align 8, !tbaa !10
  %9 = ptrtoint ptr %8 to i64
  %10 = and i64 %9, 1
  %.not48 = icmp eq i64 %10, 0
  br i1 %6, label %11, label %45

11:                                               ; preds = %2
  br i1 %.not48, label %12, label %lean_inc.exit29

12:                                               ; preds = %11
  %.val.i = load i32, ptr %8, align 4, !tbaa !4
  %13 = icmp sgt i32 %.val.i, 0
  br i1 %13, label %14, label %16, !prof !9

14:                                               ; preds = %12
  %15 = add nuw i32 %.val.i, 1
  store i32 %15, ptr %8, align 4, !tbaa !4
  br label %lean_inc.exit29

16:                                               ; preds = %12
  %.not.i36 = icmp eq i32 %.val.i, 0
  br i1 %.not.i36, label %lean_inc.exit29, label %17

17:                                               ; preds = %16
  tail call void @lean_inc_ref_cold(ptr noundef nonnull %8) #7
  br label %lean_inc.exit29

lean_inc.exit29:                                  ; preds = %17, %16, %14, %11
  %18 = ptrtoint ptr %0 to i64
  %19 = and i64 %18, 1
  %.not49 = icmp eq i64 %19, 0
  br i1 %.not49, label %20, label %lean_dec.exit26

20:                                               ; preds = %lean_inc.exit29
  %21 = load i32, ptr %0, align 4, !tbaa !4
  %22 = icmp sgt i32 %21, 1
  br i1 %22, label %23, label %25, !prof !9

23:                                               ; preds = %20
  %24 = add nsw i32 %21, -1
  store i32 %24, ptr %0, align 4, !tbaa !4
  br label %lean_dec.exit26

25:                                               ; preds = %20
  %.not.i = icmp eq i32 %21, 0
  br i1 %.not.i, label %lean_dec.exit26, label %26

26:                                               ; preds = %25
  tail call void @lean_dec_ref_cold(ptr noundef nonnull %0) #7
  br label %lean_dec.exit26

lean_dec.exit26:                                  ; preds = %26, %25, %23, %lean_inc.exit29
  %27 = getelementptr inbounds nuw i8, ptr %8, i64 16
  %28 = load ptr, ptr %27, align 8, !tbaa !10
  %29 = ptrtoint ptr %28 to i64
  %30 = and i64 %29, 1
  %.not50 = icmp eq i64 %30, 0
  br i1 %.not50, label %31, label %lean_inc.exit28

31:                                               ; preds = %lean_dec.exit26
  %.val.i37 = load i32, ptr %28, align 4, !tbaa !4
  %32 = icmp sgt i32 %.val.i37, 0
  br i1 %32, label %33, label %35, !prof !9

33:                                               ; preds = %31
  %34 = add nuw i32 %.val.i37, 1
  store i32 %34, ptr %28, align 4, !tbaa !4
  br label %lean_inc.exit28

35:                                               ; preds = %31
  %.not.i38 = icmp eq i32 %.val.i37, 0
  br i1 %.not.i38, label %lean_inc.exit28, label %36

36:                                               ; preds = %35
  tail call void @lean_inc_ref_cold(ptr noundef nonnull %28) #7
  br label %lean_inc.exit28

lean_inc.exit28:                                  ; preds = %36, %35, %33, %lean_dec.exit26
  br i1 %.not48, label %37, label %lean_dec.exit25

37:                                               ; preds = %lean_inc.exit28
  %38 = load i32, ptr %8, align 4, !tbaa !4
  %39 = icmp sgt i32 %38, 1
  br i1 %39, label %40, label %42, !prof !9

40:                                               ; preds = %37
  %41 = add nsw i32 %38, -1
  store i32 %41, ptr %8, align 4, !tbaa !4
  br label %lean_dec.exit25

42:                                               ; preds = %37
  %.not.i30 = icmp eq i32 %38, 0
  br i1 %.not.i30, label %lean_dec.exit25, label %43

43:                                               ; preds = %42
  tail call void @lean_dec_ref_cold(ptr noundef nonnull %8) #7
  br label %lean_dec.exit25

lean_dec.exit25:                                  ; preds = %43, %42, %40, %lean_inc.exit28
  %44 = tail call ptr @lean_apply_2(ptr noundef %28, ptr noundef nonnull inttoptr (i64 1 to ptr), ptr noundef nonnull inttoptr (i64 3 to ptr)) #7
  br label %85

45:                                               ; preds = %2
  br i1 %.not48, label %46, label %lean_inc.exit27

46:                                               ; preds = %45
  %.val.i40 = load i32, ptr %8, align 4, !tbaa !4
  %47 = icmp sgt i32 %.val.i40, 0
  br i1 %47, label %48, label %50, !prof !9

48:                                               ; preds = %46
  %49 = add nuw i32 %.val.i40, 1
  store i32 %49, ptr %8, align 4, !tbaa !4
  br label %lean_inc.exit27

50:                                               ; preds = %46
  %.not.i41 = icmp eq i32 %.val.i40, 0
  br i1 %.not.i41, label %lean_inc.exit27, label %51

51:                                               ; preds = %50
  tail call void @lean_inc_ref_cold(ptr noundef nonnull %8) #7
  br label %lean_inc.exit27

lean_inc.exit27:                                  ; preds = %51, %50, %48, %45
  %52 = ptrtoint ptr %0 to i64
  %53 = and i64 %52, 1
  %.not46 = icmp eq i64 %53, 0
  br i1 %.not46, label %54, label %lean_dec.exit24

54:                                               ; preds = %lean_inc.exit27
  %55 = load i32, ptr %0, align 4, !tbaa !4
  %56 = icmp sgt i32 %55, 1
  br i1 %56, label %57, label %59, !prof !9

57:                                               ; preds = %54
  %58 = add nsw i32 %55, -1
  store i32 %58, ptr %0, align 4, !tbaa !4
  br label %lean_dec.exit24

59:                                               ; preds = %54
  %.not.i32 = icmp eq i32 %55, 0
  br i1 %.not.i32, label %lean_dec.exit24, label %60

60:                                               ; preds = %59
  tail call void @lean_dec_ref_cold(ptr noundef nonnull %0) #7
  br label %lean_dec.exit24

lean_dec.exit24:                                  ; preds = %60, %59, %57, %lean_inc.exit27
  %61 = getelementptr inbounds nuw i8, ptr %8, i64 16
  %62 = load ptr, ptr %61, align 8, !tbaa !10
  %63 = ptrtoint ptr %62 to i64
  %64 = and i64 %63, 1
  %.not47 = icmp eq i64 %64, 0
  br i1 %.not47, label %65, label %lean_inc.exit

65:                                               ; preds = %lean_dec.exit24
  %.val.i43 = load i32, ptr %62, align 4, !tbaa !4
  %66 = icmp sgt i32 %.val.i43, 0
  br i1 %66, label %67, label %69, !prof !9

67:                                               ; preds = %65
  %68 = add nuw i32 %.val.i43, 1
  store i32 %68, ptr %62, align 4, !tbaa !4
  br label %lean_inc.exit

69:                                               ; preds = %65
  %.not.i44 = icmp eq i32 %.val.i43, 0
  br i1 %.not.i44, label %lean_inc.exit, label %70

70:                                               ; preds = %69
  tail call void @lean_inc_ref_cold(ptr noundef nonnull %62) #7
  br label %lean_inc.exit

lean_inc.exit:                                    ; preds = %70, %69, %67, %lean_dec.exit24
  br i1 %.not48, label %71, label %lean_dec.exit

71:                                               ; preds = %lean_inc.exit
  %72 = load i32, ptr %8, align 4, !tbaa !4
  %73 = icmp sgt i32 %72, 1
  br i1 %73, label %74, label %76, !prof !9

74:                                               ; preds = %71
  %75 = add nsw i32 %72, -1
  store i32 %75, ptr %8, align 4, !tbaa !4
  br label %lean_dec.exit

76:                                               ; preds = %71
  %.not.i34 = icmp eq i32 %72, 0
  br i1 %.not.i34, label %lean_dec.exit, label %77

77:                                               ; preds = %76
  tail call void @lean_dec_ref_cold(ptr noundef nonnull %8) #7
  br label %lean_dec.exit

lean_dec.exit:                                    ; preds = %77, %76, %74, %lean_inc.exit
  %78 = getelementptr inbounds nuw i8, ptr %1, i64 24
  %79 = load i8, ptr %78, align 1, !tbaa !18
  %80 = zext i8 %79 to i64
  %81 = shl nuw nsw i64 %80, 1
  %82 = or disjoint i64 %81, 1
  %83 = inttoptr i64 %82 to ptr
  %84 = tail call ptr @lean_apply_2(ptr noundef %62, ptr noundef nonnull inttoptr (i64 1 to ptr), ptr noundef nonnull %83) #7
  br label %85

85:                                               ; preds = %lean_dec.exit, %lean_dec.exit25
  %.0 = phi ptr [ %44, %lean_dec.exit25 ], [ %84, %lean_dec.exit ]
  ret ptr %.0
}